target datalayout = "e-m:e-p270:32:32-p271:32:32-p272:64:64-i64:64-i128:128-f80:128-n8:16:32:64-S128"
target triple = "x86_64-pc-linux-gnu"

%struct.AC3EncodeContext = type { ptr, %struct.AC3EncOptions, ptr, %struct.AudioDSPContext, ptr, %struct.MECmpContext, %struct.AC3DSPContext, ptr, ptr, [6 x %struct.AC3Block], i32, i32, i32, i32, i32, i32, i32, i32, i32, i32, i32, [2 x i16], i64, i64, i32, i32, i32, i32, i32, i32, i32, ptr, i32, i32, i32, i32, i32, i32, i32, i32, [7 x i32], i32, i32, i32, i32, i32, [18 x i8], i32, i32, i32, i32, i32, i32, %struct.AC3BitAllocParameters, i32, [7 x i32], [7 x i32], i32, i32, i32, [6 x ptr], ptr, ptr, ptr, ptr, ptr, ptr, ptr, ptr, ptr, ptr, ptr, [7 x [6 x i8]], [7 x i8], i32, [7 x [6 x i8]], [7 x [6 x ptr]], i32, ptr, ptr, %union.anon.0, %union.anon.1 }
%struct.AC3EncOptions = type { i32, i32, float, float, i32, i32, i32, i32, i32, i32, i32, i32, float, float, float, float, i32, i32, i32, i32, i32, i32, i32, i32, i32, i32 }
%struct.AudioDSPContext = type { ptr, ptr, ptr }
%struct.MECmpContext = type { ptr, [6 x ptr], [6 x ptr], [6 x ptr], [6 x ptr], [6 x ptr], [6 x ptr], [6 x ptr], [6 x ptr], [6 x ptr], [6 x ptr], [6 x ptr], [6 x ptr], [6 x ptr], [6 x ptr], [2 x [4 x ptr]], [6 x ptr] }
%struct.AC3DSPContext = type { ptr, ptr, ptr, ptr, ptr, ptr, ptr, ptr, i32, i32, ptr, ptr }
%struct.AC3Block = type { [7 x ptr], [7 x ptr], [7 x ptr], [7 x ptr], [7 x ptr], [7 x ptr], [7 x ptr], [7 x ptr], [7 x ptr], [7 x ptr], i8, i32, [4 x i8], i32, i32, [7 x i8], i32, [7 x i8], [7 x i8], i32, i32, [7 x i32] }
%struct.AC3BitAllocParameters = type { i32, i32, i32, i32, i32, i32, i32, i32, i32 }
%union.anon.0 = type { [256 x float] }
%union.anon.1 = type { [512 x float] }

; Function Attrs: cold nounwind optsize uwtable
define internal i32 @ac3_float_mdct_init(ptr noundef %0) #0 {
  %2 = alloca ptr, align 8
  %3 = alloca float, align 4
  store ptr %0, ptr %2, align 8, !tbaa !29
  call void @llvm.lifetime.start.p0(i64 4, ptr %3) #8
  store float -3.906250e-03, ptr %3, align 4, !tbaa !48
  %4 = load ptr, ptr %2, align 8, !tbaa !29
  %5 = getelementptr inbounds nuw %struct.AC3EncodeContext, ptr %4, i32 0, i32 80
  %6 = getelementptr inbounds [256 x float], ptr %5, i64 0, i64 0
  call void @ff_kbd_window_init(ptr noundef %6, float noundef 5.000000e+00, i32 noundef 256)
  %7 = load ptr, ptr %2, align 8, !tbaa !29
  %8 = getelementptr inbounds nuw %struct.AC3EncodeContext, ptr %7, i32 0, i32 7
  %9 = load ptr, ptr %2, align 8, !tbaa !29
  %10 = getelementptr inbounds nuw %struct.AC3EncodeContext, ptr %9, i32 0, i32 8
  %11 = call i32 @av_tx_init(ptr noundef %8, ptr noundef %10, i32 noundef 1, i32 noundef 0, i32 noundef 256, ptr noundef %3, i64 noundef 0)
  call void @llvm.lifetime.end.p0(i64 4, ptr %3) #8
  ret i32 %11
}