; Function Attrs: cold nounwind optsize uwtable
define internal fastcc i32 @ac3_float_mdct_init(ptr noundef %0) unnamed_addr #0 {
  %2 = alloca float, align 4
  call void @llvm.lifetime.start.p0(i64 4, ptr nonnull %2) #8
  store float -3.906250e-03, ptr %2, align 4, !tbaa !61
  %3 = getelementptr inbounds nuw i8, ptr %0, i64 5872
  tail call void @ff_kbd_window_init(ptr noundef nonnull %3, float noundef 5.000000e+00, i32 noundef 256) #8
  %4 = getelementptr inbounds nuw i8, ptr %0, i64 1032
  %5 = getelementptr inbounds nuw i8, ptr %0, i64 1040
  %6 = call i32 @av_tx_init(ptr noundef nonnull %4, ptr noundef nonnull %5, i32 noundef 1, i32 noundef 0, i32 noundef 256, ptr noundef nonnull %2, i64 noundef 0) #8
  call void @llvm.lifetime.end.p0(i64 4, ptr nonnull %2) #8
  ret i32 %6
}